---
triple:          'arm64-apple-darwin'
binary-path:     '/Users/elinagalimova/study/progrmmingTechnoligies/proga 3 semestr C++/Cpp_Romanenko/alenski_cpp/6_struct'
relocations:
  - { offsetInCU: 0x2DC1, offset: 0x2DC1, size: 0x8, addend: 0x0, symName: __ZNSt3__124__put_character_sequenceB7v160006IcNS_11char_traitsIcEEEERNS_13basic_ostreamIT_T0_EES7_PKS4_m, symObjAddr: 0x65C, symBinAddr: 0x100004B40, symSize: 0x1F4 }
  - { offsetInCU: 0x63C7, offset: 0x63C7, size: 0x8, addend: 0x0, symName: __ZNSt3__1lsB7v160006INS_11char_traitsIcEEEERNS_13basic_ostreamIcT_EES6_PKc, symObjAddr: 0x16C, symBinAddr: 0x100004650, symSize: 0x48 }
  - { offsetInCU: 0x640D, offset: 0x640D, size: 0x8, addend: 0x0, symName: __ZNSt3__14endlB7v160006IcNS_11char_traitsIcEEEERNS_13basic_ostreamIT_T0_EES7_, symObjAddr: 0x1E0, symBinAddr: 0x1000046C4, symSize: 0x58 }
  - { offsetInCU: 0x644D, offset: 0x644D, size: 0x8, addend: 0x0, symName: __ZNSt3__1neB7v160006IPK7ProductEEbRKNS_11__wrap_iterIT_EES8_, symObjAddr: 0x298, symBinAddr: 0x10000477C, symSize: 0x34 }
  - { offsetInCU: 0x69A2, offset: 0x69A2, size: 0x8, addend: 0x0, symName: __ZNSt3__116__pad_and_outputB7v160006IcNS_11char_traitsIcEEEENS_19ostreambuf_iteratorIT_T0_EES6_PKS4_S8_S8_RNS_8ios_baseES4_, symObjAddr: 0x8B4, symBinAddr: 0x100004D98, symSize: 0x248 }
  - { offsetInCU: 0x6A71, offset: 0x6A71, size: 0x8, addend: 0x0, symName: __ZNSt3__119__debug_db_insert_cB7v160006INS_12basic_stringIcNS_11char_traitsIcEENS_9allocatorIcEEEEEEvPT_, symObjAddr: 0xD70, symBinAddr: 0x100005254, symSize: 0x10 }
  - { offsetInCU: 0x6AA2, offset: 0x6AA2, size: 0x8, addend: 0x0, symName: __ZNSt3__112__to_addressB7v160006IKcEEPT_S3_, symObjAddr: 0xE3C, symBinAddr: 0x100005320, symSize: 0x14 }
  - { offsetInCU: 0x6AD7, offset: 0x6AD7, size: 0x8, addend: 0x0, symName: __ZNSt3__130__libcpp_is_constant_evaluatedB7v160006Ev, symObjAddr: 0xF68, symBinAddr: 0x10000544C, symSize: 0xC }
  - { offsetInCU: 0x6B27, offset: 0x6B27, size: 0x8, addend: 0x0, symName: __ZNSt3__19use_facetB7v160006INS_5ctypeIcEEEERKT_RKNS_6localeE, symObjAddr: 0x1118, symBinAddr: 0x1000055FC, symSize: 0x2C }
  - { offsetInCU: 0x6FF6, offset: 0x6FF6, size: 0x8, addend: 0x0, symName: __ZNSt3__118__constexpr_strlenB7v160006EPKc, symObjAddr: 0x11B0, symBinAddr: 0x100005694, symSize: 0x24 }
  - { offsetInCU: 0x7022, offset: 0x7022, size: 0x8, addend: 0x0, symName: __ZNSt3__1eqB7v160006IPK7ProductEEbRKNS_11__wrap_iterIT_EES8_, symObjAddr: 0x1268, symBinAddr: 0x10000574C, symSize: 0x48 }
  - { offsetInCU: 0x7065, offset: 0x7065, size: 0x8, addend: 0x0, symName: __ZNSt3__119__debug_db_insert_cB7v160006INS_6vectorI7ProductNS_9allocatorIS2_EEEEEEvPT_, symObjAddr: 0x1350, symBinAddr: 0x100005834, symSize: 0x10 }
  - { offsetInCU: 0x7096, offset: 0x7096, size: 0x8, addend: 0x0, symName: __ZNSt3__118__debug_db_erase_cB7v160006INS_6vectorI7ProductNS_9allocatorIS2_EEEEEEvPT_, symObjAddr: 0x1628, symBinAddr: 0x100005B0C, symSize: 0x10 }
  - { offsetInCU: 0x70C7, offset: 0x70C7, size: 0x8, addend: 0x0, symName: __ZNSt3__112__to_addressB7v160006I7ProductEEPT_S3_, symObjAddr: 0x176C, symBinAddr: 0x100005C50, symSize: 0x14 }
  - { offsetInCU: 0x70FC, offset: 0x70FC, size: 0x8, addend: 0x0, symName: __ZNSt3__119__libcpp_deallocateB7v160006EPvmm, symObjAddr: 0x18D4, symBinAddr: 0x100005DB8, symSize: 0x30 }
  - { offsetInCU: 0x7144, offset: 0x7144, size: 0x8, addend: 0x0, symName: __ZNSt3__127__do_deallocate_handle_sizeB7v160006IJEEEvPvmDpT_, symObjAddr: 0x1904, symBinAddr: 0x100005DE8, symSize: 0x28 }
  - { offsetInCU: 0x7182, offset: 0x7182, size: 0x8, addend: 0x0, symName: __ZNSt3__124__libcpp_operator_deleteB7v160006IJPvEEEvDpT_, symObjAddr: 0x192C, symBinAddr: 0x100005E10, symSize: 0x24 }
  - { offsetInCU: 0x71B7, offset: 0x71B7, size: 0x8, addend: 0x0, symName: __ZNSt3__13maxB7v160006ImEERKT_S3_S3_, symObjAddr: 0x20A0, symBinAddr: 0x100006584, symSize: 0x2C }
  - { offsetInCU: 0x71FA, offset: 0x71FA, size: 0x8, addend: 0x0, symName: __ZNSt3__13minB7v160006ImEERKT_S3_S3_, symObjAddr: 0x20CC, symBinAddr: 0x1000065B0, symSize: 0x2C }
  - { offsetInCU: 0x743E, offset: 0x743E, size: 0x8, addend: 0x0, symName: __ZNSt3__13minB7v160006ImNS_6__lessImmEEEERKT_S5_S5_T0_, symObjAddr: 0x2158, symBinAddr: 0x10000663C, symSize: 0x54 }
  - { offsetInCU: 0x74D3, offset: 0x74D3, size: 0x8, addend: 0x0, symName: __ZNSt3__120__throw_length_errorB7v160006EPKc, symObjAddr: 0x2240, symBinAddr: 0x100006724, symSize: 0x64 }
  - { offsetInCU: 0x74FB, offset: 0x74FB, size: 0x8, addend: 0x0, symName: __ZNSt3__13maxB7v160006ImNS_6__lessImmEEEERKT_S5_S5_T0_, symObjAddr: 0x2324, symBinAddr: 0x100006808, symSize: 0x54 }
  - { offsetInCU: 0x7555, offset: 0x7555, size: 0x8, addend: 0x0, symName: __ZNSt3__119__allocate_at_leastB7v160006INS_9allocatorI7ProductEEEENS_19__allocation_resultINS_16allocator_traitsIT_E7pointerEEERS6_m, symObjAddr: 0x2494, symBinAddr: 0x100006978, symSize: 0x40 }
  - { offsetInCU: 0x7598, offset: 0x7598, size: 0x8, addend: 0x0, symName: __ZNSt3__117__libcpp_allocateB7v160006Emm, symObjAddr: 0x264C, symBinAddr: 0x100006B30, symSize: 0x28 }
  - { offsetInCU: 0x75D5, offset: 0x75D5, size: 0x8, addend: 0x0, symName: __ZNSt3__121__libcpp_operator_newB7v160006IJmEEEPvDpT_, symObjAddr: 0x2674, symBinAddr: 0x100006B58, symSize: 0x24 }
  - { offsetInCU: 0x760E, offset: 0x760E, size: 0x8, addend: 0x0, symName: __ZNSt3__142__uninitialized_allocator_move_if_noexceptB7v160006INS_9allocatorI7ProductEENS_16reverse_iteratorIPS2_EES6_S2_vEET1_RT_T0_SA_S7_, symObjAddr: 0x26FC, symBinAddr: 0x100006BE0, symSize: 0xE8 }
  - { offsetInCU: 0x768B, offset: 0x768B, size: 0x8, addend: 0x0, symName: __ZNSt3__14swapB7v160006IP7ProductEEvRT_S4_, symObjAddr: 0x2830, symBinAddr: 0x100006D14, symSize: 0x3C }
  - { offsetInCU: 0x76DC, offset: 0x76DC, size: 0x8, addend: 0x0, symName: __ZNSt3__125__debug_db_invalidate_allB7v160006INS_6vectorI7ProductNS_9allocatorIS2_EEEEEEvPT_, symObjAddr: 0x2934, symBinAddr: 0x100006E18, symSize: 0x10 }
  - { offsetInCU: 0x770D, offset: 0x770D, size: 0x8, addend: 0x0, symName: __ZNSt3__1neB7v160006IP7ProductS2_EEbRKNS_16reverse_iteratorIT_EERKNS3_IT0_EE, symObjAddr: 0x2944, symBinAddr: 0x100006E28, symSize: 0x48 }
  - { offsetInCU: 0x777E, offset: 0x777E, size: 0x8, addend: 0x0, symName: __ZNSt3__114__construct_atB7v160006I7ProductJS1_EPS1_EEPT_S4_DpOT0_, symObjAddr: 0x298C, symBinAddr: 0x100006E70, symSize: 0x40 }
  - { offsetInCU: 0x77EE, offset: 0x77EE, size: 0x8, addend: 0x0, symName: __ZNSt3__112__to_addressB7v160006INS_16reverse_iteratorIP7ProductEEvEENS_5decayIDTclsr19__to_address_helperIT_EE6__callclsr3stdE7declvalIRKS6_EEEEE4typeES8_, symObjAddr: 0x29CC, symBinAddr: 0x100006EB0, symSize: 0x24 }
  - { offsetInCU: 0x7824, offset: 0x7824, size: 0x8, addend: 0x0, symName: __ZNSt3__14moveB7v160006INS_16reverse_iteratorIP7ProductEES4_EET0_T_S6_S5_, symObjAddr: 0x2A38, symBinAddr: 0x100006F1C, symSize: 0x78 }
  - { offsetInCU: 0x78A7, offset: 0x78A7, size: 0x8, addend: 0x0, symName: __ZNSt3__16__moveB7v160006INS_17_ClassicAlgPolicyENS_16reverse_iteratorIP7ProductEES5_S5_EENS_4pairIT0_T2_EES7_T1_S8_, symObjAddr: 0x2B20, symBinAddr: 0x100007004, symSize: 0x64 }
  - { offsetInCU: 0x7913, offset: 0x7913, size: 0x8, addend: 0x0, symName: __ZNSt3__123__dispatch_copy_or_moveB7v160006INS_17_ClassicAlgPolicyENS_11__move_loopIS1_EENS_14__move_trivialENS_16reverse_iteratorIP7ProductEES8_S8_EENS_4pairIT2_T4_EESA_T3_SB_, symObjAddr: 0x2B84, symBinAddr: 0x100007068, symSize: 0x7C }
  - { offsetInCU: 0x7991, offset: 0x7991, size: 0x8, addend: 0x0, symName: __ZNSt3__121__unwrap_and_dispatchB7v160006INS_10__overloadINS_11__move_loopINS_17_ClassicAlgPolicyEEENS_14__move_trivialEEENS_16reverse_iteratorIP7ProductEESA_SA_Li0EEENS_4pairIT0_T2_EESC_T1_SD_, symObjAddr: 0x2C00, symBinAddr: 0x1000070E4, symSize: 0x12C }
  - { offsetInCU: 0x7A21, offset: 0x7A21, size: 0x8, addend: 0x0, symName: __ZNSt3__114__unwrap_rangeB7v160006INS_16reverse_iteratorIP7ProductEES4_EENS_4pairIT0_S6_EET_S8_, symObjAddr: 0x2D2C, symBinAddr: 0x100007210, symSize: 0x84 }
  - { offsetInCU: 0x7B75, offset: 0x7B75, size: 0x8, addend: 0x0, symName: __ZNSt3__113__unwrap_iterB7v160006INS_16reverse_iteratorIP7ProductEENS_18__unwrap_iter_implIS4_Lb0EEELi0EEEDTclsrT0_8__unwrapclsr3stdE7declvalIT_EEEES8_, symObjAddr: 0x2E4C, symBinAddr: 0x100007330, symSize: 0x44 }
  - { offsetInCU: 0x7BB9, offset: 0x7BB9, size: 0x8, addend: 0x0, symName: __ZNSt3__19make_pairB7v160006INS_16reverse_iteratorIP7ProductEES4_EENS_4pairINS_18__unwrap_ref_decayIT_E4typeENS6_IT0_E4typeEEEOS7_OSA_, symObjAddr: 0x2E90, symBinAddr: 0x100007374, symSize: 0x38 }
  - { offsetInCU: 0x7C08, offset: 0x7C08, size: 0x8, addend: 0x0, symName: __ZNSt3__114__rewrap_rangeB7v160006INS_16reverse_iteratorIP7ProductEES4_EET_S5_T0_, symObjAddr: 0x2EC8, symBinAddr: 0x1000073AC, symSize: 0x5C }
  - { offsetInCU: 0x7C54, offset: 0x7C54, size: 0x8, addend: 0x0, symName: __ZNSt3__113__rewrap_iterB7v160006INS_16reverse_iteratorIP7ProductEES4_NS_18__unwrap_iter_implIS4_Lb0EEEEET_S7_T0_, symObjAddr: 0x2F24, symBinAddr: 0x100007408, symSize: 0x88 }
  - { offsetInCU: 0x7F39, offset: 0x7F39, size: 0x8, addend: 0x0, symName: __ZSt28__throw_bad_array_new_lengthB7v160006v, symObjAddr: 0x2618, symBinAddr: 0x100006AFC, symSize: 0x34 }
  - { offsetInCU: 0x8546, offset: 0x8546, size: 0x8, addend: 0x0, symName: __ZNSt3__16vectorI7ProductNS_9allocatorIS1_EEE26__swap_out_circular_bufferERNS_14__split_bufferIS1_RS3_EE, symObjAddr: 0x1ECC, symBinAddr: 0x1000063B0, symSize: 0x118 }
  - { offsetInCU: 0xA76E, offset: 0xA76E, size: 0x8, addend: 0x0, symName: __Z28printProductsByProfitabilityRKNSt3__16vectorI7ProductNS_9allocatorIS1_EEEEf, symObjAddr: 0x0, symBinAddr: 0x1000044E4, symSize: 0x16C }
  - { offsetInCU: 0xA7F8, offset: 0xA7F8, size: 0x8, addend: 0x0, symName: __ZNSt3__113basic_ostreamIcNS_11char_traitsIcEEElsB7v160006EPFRS3_S4_E, symObjAddr: 0x1B4, symBinAddr: 0x100004698, symSize: 0x2C }
  - { offsetInCU: 0xA82A, offset: 0xA82A, size: 0x8, addend: 0x0, symName: __ZNKSt3__16vectorI7ProductNS_9allocatorIS1_EEE5beginB7v160006Ev, symObjAddr: 0x238, symBinAddr: 0x10000471C, symSize: 0x30 }
  - { offsetInCU: 0xA850, offset: 0xA850, size: 0x8, addend: 0x0, symName: __ZNKSt3__16vectorI7ProductNS_9allocatorIS1_EEE3endB7v160006Ev, symObjAddr: 0x268, symBinAddr: 0x10000474C, symSize: 0x30 }
  - { offsetInCU: 0xA877, offset: 0xA877, size: 0x8, addend: 0x0, symName: __ZNKSt3__111__wrap_iterIPK7ProductEdeB7v160006Ev, symObjAddr: 0x2CC, symBinAddr: 0x1000047B0, symSize: 0x18 }
  - { offsetInCU: 0xA89C, offset: 0xA89C, size: 0x8, addend: 0x0, symName: __ZNK7Product22calculateProfitabilityEv, symObjAddr: 0x2E4, symBinAddr: 0x1000047C8, symSize: 0x30 }
  - { offsetInCU: 0xA8C1, offset: 0xA8C1, size: 0x8, addend: 0x0, symName: __ZNSt3__111__wrap_iterIPK7ProductEppB7v160006Ev, symObjAddr: 0x314, symBinAddr: 0x1000047F8, symSize: 0x20 }
  - { offsetInCU: 0xA8E6, offset: 0xA8E6, size: 0x8, addend: 0x0, symName: _main, symObjAddr: 0x334, symBinAddr: 0x100004818, symSize: 0x1D0 }
  - { offsetInCU: 0xA97B, offset: 0xA97B, size: 0x8, addend: 0x0, symName: __ZNSt3__16vectorI7ProductNS_9allocatorIS1_EEEC1B7v160006Ev, symObjAddr: 0x504, symBinAddr: 0x1000049E8, symSize: 0x2C }
  - { offsetInCU: 0xA9A4, offset: 0xA9A4, size: 0x8, addend: 0x0, symName: __ZNSt3__111char_traitsIcE3eofEv, symObjAddr: 0x530, symBinAddr: 0x100004A14, symSize: 0x8 }
  - { offsetInCU: 0xAA2C, offset: 0xAA2C, size: 0x8, addend: 0x0, symName: __ZNSt3__113basic_istreamIcNS_11char_traitsIcEEE7getlineB7v160006EPcl, symObjAddr: 0x538, symBinAddr: 0x100004A1C, symSize: 0x68 }
  - { offsetInCU: 0xAA73, offset: 0xAA73, size: 0x8, addend: 0x0, symName: __ZNSt3__16vectorI7ProductNS_9allocatorIS1_EEE12emplace_backIJRA100_cRiS8_EEEvDpOT_, symObjAddr: 0x5A0, symBinAddr: 0x100004A84, symSize: 0x84 }
  - { offsetInCU: 0xAADC, offset: 0xAADC, size: 0x8, addend: 0x0, symName: __ZNSt3__16vectorI7ProductNS_9allocatorIS1_EEED1B7v160006Ev, symObjAddr: 0x624, symBinAddr: 0x100004B08, symSize: 0x2C }
  - { offsetInCU: 0xAB05, offset: 0xAB05, size: 0x8, addend: 0x0, symName: __ZNSt3__111char_traitsIcE6lengthEPKc, symObjAddr: 0x850, symBinAddr: 0x100004D34, symSize: 0x48 }
  - { offsetInCU: 0xAB46, offset: 0xAB46, size: 0x8, addend: 0x0, symName: __ZNKSt3__113basic_ostreamIcNS_11char_traitsIcEEE6sentrycvbB7v160006Ev, symObjAddr: 0x898, symBinAddr: 0x100004D7C, symSize: 0x1C }
  - { offsetInCU: 0xAB6B, offset: 0xAB6B, size: 0x8, addend: 0x0, symName: __ZNSt3__119ostreambuf_iteratorIcNS_11char_traitsIcEEEC1B7v160006ERNS_13basic_ostreamIcS2_EE, symObjAddr: 0xAFC, symBinAddr: 0x100004FE0, symSize: 0x34 }
  - { offsetInCU: 0xABA2, offset: 0xABA2, size: 0x8, addend: 0x0, symName: __ZNKSt3__18ios_base5flagsB7v160006Ev, symObjAddr: 0xB30, symBinAddr: 0x100005014, symSize: 0x18 }
  - { offsetInCU: 0xABC8, offset: 0xABC8, size: 0x8, addend: 0x0, symName: __ZNKSt3__19basic_iosIcNS_11char_traitsIcEEE4fillB7v160006Ev, symObjAddr: 0xB48, symBinAddr: 0x10000502C, symSize: 0x64 }
  - { offsetInCU: 0xABEF, offset: 0xABEF, size: 0x8, addend: 0x0, symName: __ZNKSt3__119ostreambuf_iteratorIcNS_11char_traitsIcEEE6failedB7v160006Ev, symObjAddr: 0xBAC, symBinAddr: 0x100005090, symSize: 0x24 }
  - { offsetInCU: 0xAC14, offset: 0xAC14, size: 0x8, addend: 0x0, symName: __ZNSt3__19basic_iosIcNS_11char_traitsIcEEE8setstateB7v160006Ej, symObjAddr: 0xBD0, symBinAddr: 0x1000050B4, symSize: 0x2C }
  - { offsetInCU: 0xAC48, offset: 0xAC48, size: 0x8, addend: 0x0, symName: __ZNKSt3__18ios_base5widthB7v160006Ev, symObjAddr: 0xBFC, symBinAddr: 0x1000050E0, symSize: 0x18 }
  - { offsetInCU: 0xAC6F, offset: 0xAC6F, size: 0x8, addend: 0x0, symName: __ZNSt3__115basic_streambufIcNS_11char_traitsIcEEE5sputnB7v160006EPKcl, symObjAddr: 0xC14, symBinAddr: 0x1000050F8, symSize: 0x3C }
  - { offsetInCU: 0xACB0, offset: 0xACB0, size: 0x8, addend: 0x0, symName: __ZNSt3__112basic_stringIcNS_11char_traitsIcEENS_9allocatorIcEEEC1B7v160006Emc, symObjAddr: 0xC50, symBinAddr: 0x100005134, symSize: 0x3C }
  - { offsetInCU: 0xACF7, offset: 0xACF7, size: 0x8, addend: 0x0, symName: __ZNKSt3__112basic_stringIcNS_11char_traitsIcEENS_9allocatorIcEEE4dataB7v160006Ev, symObjAddr: 0xC8C, symBinAddr: 0x100005170, symSize: 0x28 }
  - { offsetInCU: 0xAD1C, offset: 0xAD1C, size: 0x8, addend: 0x0, symName: __ZNSt3__18ios_base5widthB7v160006El, symObjAddr: 0xCB4, symBinAddr: 0x100005198, symSize: 0x2C }
  - { offsetInCU: 0xAD61, offset: 0xAD61, size: 0x8, addend: 0x0, symName: __ZNSt3__112basic_stringIcNS_11char_traitsIcEENS_9allocatorIcEEEC2B7v160006Emc, symObjAddr: 0xCE0, symBinAddr: 0x1000051C4, symSize: 0x54 }
  - { offsetInCU: 0xADAD, offset: 0xADAD, size: 0x8, addend: 0x0, symName: __ZNSt3__117__compressed_pairINS_12basic_stringIcNS_11char_traitsIcEENS_9allocatorIcEEE5__repES5_EC1B7v160006INS_18__default_init_tagESA_EEOT_OT0_, symObjAddr: 0xD34, symBinAddr: 0x100005218, symSize: 0x3C }
  - { offsetInCU: 0xAE04, offset: 0xAE04, size: 0x8, addend: 0x0, symName: __ZNSt3__117__compressed_pairINS_12basic_stringIcNS_11char_traitsIcEENS_9allocatorIcEEE5__repES5_EC2B7v160006INS_18__default_init_tagESA_EEOT_OT0_, symObjAddr: 0xD80, symBinAddr: 0x100005264, symSize: 0x3C }
  - { offsetInCU: 0xAE5B, offset: 0xAE5B, size: 0x8, addend: 0x0, symName: __ZNSt3__122__compressed_pair_elemINS_12basic_stringIcNS_11char_traitsIcEENS_9allocatorIcEEE5__repELi0ELb0EEC2B7v160006ENS_18__default_init_tagE, symObjAddr: 0xDBC, symBinAddr: 0x1000052A0, symSize: 0x14 }
  - { offsetInCU: 0xAE8F, offset: 0xAE8F, size: 0x8, addend: 0x0, symName: __ZNSt3__122__compressed_pair_elemINS_9allocatorIcEELi1ELb1EEC2B7v160006ENS_18__default_init_tagE, symObjAddr: 0xDD0, symBinAddr: 0x1000052B4, symSize: 0x2C }
  - { offsetInCU: 0xAEC3, offset: 0xAEC3, size: 0x8, addend: 0x0, symName: __ZNSt3__19allocatorIcEC2B7v160006Ev, symObjAddr: 0xDFC, symBinAddr: 0x1000052E0, symSize: 0x2C }
  - { offsetInCU: 0xAEEC, offset: 0xAEEC, size: 0x8, addend: 0x0, symName: __ZNSt3__116__non_trivial_ifILb1ENS_9allocatorIcEEEC2B7v160006Ev, symObjAddr: 0xE28, symBinAddr: 0x10000530C, symSize: 0x14 }
  - { offsetInCU: 0xAF15, offset: 0xAF15, size: 0x8, addend: 0x0, symName: __ZNKSt3__112basic_stringIcNS_11char_traitsIcEENS_9allocatorIcEEE13__get_pointerB7v160006Ev, symObjAddr: 0xE50, symBinAddr: 0x100005334, symSize: 0x54 }
  - { offsetInCU: 0xAF3A, offset: 0xAF3A, size: 0x8, addend: 0x0, symName: __ZNKSt3__112basic_stringIcNS_11char_traitsIcEENS_9allocatorIcEEE9__is_longB7v160006Ev, symObjAddr: 0xEA4, symBinAddr: 0x100005388, symSize: 0x74 }
  - { offsetInCU: 0xAF5F, offset: 0xAF5F, size: 0x8, addend: 0x0, symName: __ZNKSt3__112basic_stringIcNS_11char_traitsIcEENS_9allocatorIcEEE18__get_long_pointerB7v160006Ev, symObjAddr: 0xF18, symBinAddr: 0x1000053FC, symSize: 0x28 }
  - { offsetInCU: 0xAF84, offset: 0xAF84, size: 0x8, addend: 0x0, symName: __ZNKSt3__112basic_stringIcNS_11char_traitsIcEENS_9allocatorIcEEE19__get_short_pointerB7v160006Ev, symObjAddr: 0xF40, symBinAddr: 0x100005424, symSize: 0x28 }
  - { offsetInCU: 0xAFA9, offset: 0xAFA9, size: 0x8, addend: 0x0, symName: __ZNKSt3__117__compressed_pairINS_12basic_stringIcNS_11char_traitsIcEENS_9allocatorIcEEE5__repES5_E5firstB7v160006Ev, symObjAddr: 0xF74, symBinAddr: 0x100005458, symSize: 0x24 }
  - { offsetInCU: 0xAFCE, offset: 0xAFCE, size: 0x8, addend: 0x0, symName: __ZNKSt3__122__compressed_pair_elemINS_12basic_stringIcNS_11char_traitsIcEENS_9allocatorIcEEE5__repELi0ELb0EE5__getB7v160006Ev, symObjAddr: 0xF98, symBinAddr: 0x10000547C, symSize: 0x14 }
  - { offsetInCU: 0xAFF3, offset: 0xAFF3, size: 0x8, addend: 0x0, symName: __ZNSt3__114pointer_traitsIPKcE10pointer_toB7v160006ERS1_, symObjAddr: 0xFAC, symBinAddr: 0x100005490, symSize: 0x14 }
  - { offsetInCU: 0xB016, offset: 0xB016, size: 0x8, addend: 0x0, symName: __ZNSt3__119ostreambuf_iteratorIcNS_11char_traitsIcEEEC2B7v160006ERNS_13basic_ostreamIcS2_EE, symObjAddr: 0xFC0, symBinAddr: 0x1000054A4, symSize: 0x68 }
  - { offsetInCU: 0xB04C, offset: 0xB04C, size: 0x8, addend: 0x0, symName: __ZNKSt3__19basic_iosIcNS_11char_traitsIcEEE5rdbufB7v160006Ev, symObjAddr: 0x1028, symBinAddr: 0x10000550C, symSize: 0x24 }
  - { offsetInCU: 0xB073, offset: 0xB073, size: 0x8, addend: 0x0, symName: __ZNKSt3__18ios_base5rdbufB7v160006Ev, symObjAddr: 0x104C, symBinAddr: 0x100005530, symSize: 0x18 }
  - { offsetInCU: 0xB098, offset: 0xB098, size: 0x8, addend: 0x0, symName: __ZNSt3__111char_traitsIcE11eq_int_typeEii, symObjAddr: 0x1064, symBinAddr: 0x100005548, symSize: 0x28 }
  - { offsetInCU: 0xB0C8, offset: 0xB0C8, size: 0x8, addend: 0x0, symName: __ZNKSt3__19basic_iosIcNS_11char_traitsIcEEE5widenB7v160006Ec, symObjAddr: 0x108C, symBinAddr: 0x100005570, symSize: 0x8C }
  - { offsetInCU: 0xB135, offset: 0xB135, size: 0x8, addend: 0x0, symName: __ZNKSt3__15ctypeIcE5widenB7v160006Ec, symObjAddr: 0x1144, symBinAddr: 0x100005628, symSize: 0x38 }
  - { offsetInCU: 0xB168, offset: 0xB168, size: 0x8, addend: 0x0, symName: __ZNSt3__18ios_base8setstateB7v160006Ej, symObjAddr: 0x117C, symBinAddr: 0x100005660, symSize: 0x34 }
  - { offsetInCU: 0xB19E, offset: 0xB19E, size: 0x8, addend: 0x0, symName: __ZNKSt3__16vectorI7ProductNS_9allocatorIS1_EEE11__make_iterB7v160006EPKS1_, symObjAddr: 0x11D4, symBinAddr: 0x1000056B8, symSize: 0x34 }
  - { offsetInCU: 0xB1D2, offset: 0xB1D2, size: 0x8, addend: 0x0, symName: __ZNSt3__111__wrap_iterIPK7ProductEC1B7v160006EPKvS3_, symObjAddr: 0x1208, symBinAddr: 0x1000056EC, symSize: 0x3C }
  - { offsetInCU: 0xB217, offset: 0xB217, size: 0x8, addend: 0x0, symName: __ZNSt3__111__wrap_iterIPK7ProductEC2B7v160006EPKvS3_, symObjAddr: 0x1244, symBinAddr: 0x100005728, symSize: 0x24 }
  - { offsetInCU: 0xB25C, offset: 0xB25C, size: 0x8, addend: 0x0, symName: __ZNKSt3__111__wrap_iterIPK7ProductE4baseB7v160006Ev, symObjAddr: 0x12B0, symBinAddr: 0x100005794, symSize: 0x18 }
  - { offsetInCU: 0xB281, offset: 0xB281, size: 0x8, addend: 0x0, symName: __ZNSt3__16vectorI7ProductNS_9allocatorIS1_EEEC2B7v160006Ev, symObjAddr: 0x12C8, symBinAddr: 0x1000057AC, symSize: 0x4C }
  - { offsetInCU: 0xB2AF, offset: 0xB2AF, size: 0x8, addend: 0x0, symName: __ZNSt3__117__compressed_pairIP7ProductNS_9allocatorIS1_EEEC1B7v160006IDnNS_18__default_init_tagEEEOT_OT0_, symObjAddr: 0x1314, symBinAddr: 0x1000057F8, symSize: 0x3C }
  - { offsetInCU: 0xB306, offset: 0xB306, size: 0x8, addend: 0x0, symName: __ZNSt3__117__compressed_pairIP7ProductNS_9allocatorIS1_EEEC2B7v160006IDnNS_18__default_init_tagEEEOT_OT0_, symObjAddr: 0x1360, symBinAddr: 0x100005844, symSize: 0x40 }
  - { offsetInCU: 0xB35D, offset: 0xB35D, size: 0x8, addend: 0x0, symName: __ZNSt3__122__compressed_pair_elemIP7ProductLi0ELb0EEC2B7v160006IDnvEEOT_, symObjAddr: 0x13A0, symBinAddr: 0x100005884, symSize: 0x1C }
  - { offsetInCU: 0xB39E, offset: 0xB39E, size: 0x8, addend: 0x0, symName: __ZNSt3__122__compressed_pair_elemINS_9allocatorI7ProductEELi1ELb1EEC2B7v160006ENS_18__default_init_tagE, symObjAddr: 0x13BC, symBinAddr: 0x1000058A0, symSize: 0x2C }
  - { offsetInCU: 0xB3D2, offset: 0xB3D2, size: 0x8, addend: 0x0, symName: __ZNSt3__19allocatorI7ProductEC2B7v160006Ev, symObjAddr: 0x13E8, symBinAddr: 0x1000058CC, symSize: 0x2C }
  - { offsetInCU: 0xB3FB, offset: 0xB3FB, size: 0x8, addend: 0x0, symName: __ZNSt3__116__non_trivial_ifILb1ENS_9allocatorI7ProductEEEC2B7v160006Ev, symObjAddr: 0x1414, symBinAddr: 0x1000058F8, symSize: 0x14 }
  - { offsetInCU: 0xB424, offset: 0xB424, size: 0x8, addend: 0x0, symName: __ZNSt3__16vectorI7ProductNS_9allocatorIS1_EEED2B7v160006Ev, symObjAddr: 0x1428, symBinAddr: 0x10000590C, symSize: 0x3C }
  - { offsetInCU: 0xB44D, offset: 0xB44D, size: 0x8, addend: 0x0, symName: __ZNSt3__16vectorI7ProductNS_9allocatorIS1_EEE16__destroy_vectorC1ERS4_, symObjAddr: 0x1464, symBinAddr: 0x100005948, symSize: 0x34 }
  - { offsetInCU: 0xB485, offset: 0xB485, size: 0x8, addend: 0x0, symName: __ZNSt3__16vectorI7ProductNS_9allocatorIS1_EEE16__destroy_vectorclB7v160006Ev, symObjAddr: 0x1498, symBinAddr: 0x10000597C, symSize: 0x9C }
  - { offsetInCU: 0xB4AA, offset: 0xB4AA, size: 0x8, addend: 0x0, symName: __ZNSt3__16vectorI7ProductNS_9allocatorIS1_EEE16__destroy_vectorC2ERS4_, symObjAddr: 0x1534, symBinAddr: 0x100005A18, symSize: 0x20 }
  - { offsetInCU: 0xB4E2, offset: 0xB4E2, size: 0x8, addend: 0x0, symName: __ZNKSt3__16vectorI7ProductNS_9allocatorIS1_EEE17__annotate_deleteB7v160006Ev, symObjAddr: 0x1554, symBinAddr: 0x100005A38, symSize: 0xD4 }
  - { offsetInCU: 0xB507, offset: 0xB507, size: 0x8, addend: 0x0, symName: __ZNSt3__16vectorI7ProductNS_9allocatorIS1_EEE7__clearB7v160006Ev, symObjAddr: 0x1638, symBinAddr: 0x100005B1C, symSize: 0x28 }
  - { offsetInCU: 0xB52C, offset: 0xB52C, size: 0x8, addend: 0x0, symName: __ZNSt3__116allocator_traitsINS_9allocatorI7ProductEEE10deallocateB7v160006ERS3_PS2_m, symObjAddr: 0x1660, symBinAddr: 0x100005B44, symSize: 0x34 }
  - { offsetInCU: 0xB56E, offset: 0xB56E, size: 0x8, addend: 0x0, symName: __ZNSt3__16vectorI7ProductNS_9allocatorIS1_EEE7__allocB7v160006Ev, symObjAddr: 0x1694, symBinAddr: 0x100005B78, symSize: 0x28 }
  - { offsetInCU: 0xB593, offset: 0xB593, size: 0x8, addend: 0x0, symName: __ZNKSt3__16vectorI7ProductNS_9allocatorIS1_EEE8capacityB7v160006Ev, symObjAddr: 0x16BC, symBinAddr: 0x100005BA0, symSize: 0x40 }
  - { offsetInCU: 0xB5B8, offset: 0xB5B8, size: 0x8, addend: 0x0, symName: __ZNKSt3__16vectorI7ProductNS_9allocatorIS1_EEE31__annotate_contiguous_containerB7v160006EPKvS6_S6_S6_, symObjAddr: 0x16FC, symBinAddr: 0x100005BE0, symSize: 0x20 }
  - { offsetInCU: 0xB609, offset: 0xB609, size: 0x8, addend: 0x0, symName: __ZNKSt3__16vectorI7ProductNS_9allocatorIS1_EEE4dataB7v160006Ev, symObjAddr: 0x171C, symBinAddr: 0x100005C00, symSize: 0x28 }
  - { offsetInCU: 0xB62E, offset: 0xB62E, size: 0x8, addend: 0x0, symName: __ZNKSt3__16vectorI7ProductNS_9allocatorIS1_EEE4sizeB7v160006Ev, symObjAddr: 0x1744, symBinAddr: 0x100005C28, symSize: 0x28 }
  - { offsetInCU: 0xB653, offset: 0xB653, size: 0x8, addend: 0x0, symName: __ZNSt3__16vectorI7ProductNS_9allocatorIS1_EEE22__base_destruct_at_endB7v160006EPS1_, symObjAddr: 0x1780, symBinAddr: 0x100005C64, symSize: 0xA0 }
  - { offsetInCU: 0xB696, offset: 0xB696, size: 0x8, addend: 0x0, symName: __ZNSt3__116allocator_traitsINS_9allocatorI7ProductEEE7destroyB7v160006IS2_vEEvRS3_PT_, symObjAddr: 0x1820, symBinAddr: 0x100005D04, symSize: 0x2C }
  - { offsetInCU: 0xB6D3, offset: 0xB6D3, size: 0x8, addend: 0x0, symName: __ZNSt3__19allocatorI7ProductE7destroyB7v160006EPS1_, symObjAddr: 0x184C, symBinAddr: 0x100005D30, symSize: 0x14 }
  - { offsetInCU: 0xB706, offset: 0xB706, size: 0x8, addend: 0x0, symName: __ZNSt3__19allocatorI7ProductE10deallocateB7v160006EPS1_m, symObjAddr: 0x1860, symBinAddr: 0x100005D44, symSize: 0x74 }
  - { offsetInCU: 0xB747, offset: 0xB747, size: 0x8, addend: 0x0, symName: __ZNSt3__117__compressed_pairIP7ProductNS_9allocatorIS1_EEE6secondB7v160006Ev, symObjAddr: 0x1950, symBinAddr: 0x100005E34, symSize: 0x24 }
  - { offsetInCU: 0xB76C, offset: 0xB76C, size: 0x8, addend: 0x0, symName: __ZNSt3__122__compressed_pair_elemINS_9allocatorI7ProductEELi1ELb1EE5__getB7v160006Ev, symObjAddr: 0x1974, symBinAddr: 0x100005E58, symSize: 0x14 }
  - { offsetInCU: 0xB791, offset: 0xB791, size: 0x8, addend: 0x0, symName: __ZNKSt3__16vectorI7ProductNS_9allocatorIS1_EEE9__end_capB7v160006Ev, symObjAddr: 0x1988, symBinAddr: 0x100005E6C, symSize: 0x28 }
  - { offsetInCU: 0xB7B6, offset: 0xB7B6, size: 0x8, addend: 0x0, symName: __ZNKSt3__117__compressed_pairIP7ProductNS_9allocatorIS1_EEE5firstB7v160006Ev, symObjAddr: 0x19B0, symBinAddr: 0x100005E94, symSize: 0x24 }
  - { offsetInCU: 0xB7DB, offset: 0xB7DB, size: 0x8, addend: 0x0, symName: __ZNKSt3__122__compressed_pair_elemIP7ProductLi0ELb0EE5__getB7v160006Ev, symObjAddr: 0x19D4, symBinAddr: 0x100005EB8, symSize: 0x14 }
  - { offsetInCU: 0xB800, offset: 0xB800, size: 0x8, addend: 0x0, symName: __ZNSt3__16vectorI7ProductNS_9allocatorIS1_EEE9__end_capB7v160006Ev, symObjAddr: 0x19E8, symBinAddr: 0x100005ECC, symSize: 0x28 }
  - { offsetInCU: 0xB825, offset: 0xB825, size: 0x8, addend: 0x0, symName: __ZNSt3__16vectorI7ProductNS_9allocatorIS1_EEE22__construct_one_at_endB7v160006IJRA100_cRiS8_EEEvDpOT_, symObjAddr: 0x1A10, symBinAddr: 0x100005EF4, symSize: 0xA8 }
  - { offsetInCU: 0xB89A, offset: 0xB89A, size: 0x8, addend: 0x0, symName: __ZNSt3__16vectorI7ProductNS_9allocatorIS1_EEE24__emplace_back_slow_pathIJRA100_cRiS8_EEEvDpOT_, symObjAddr: 0x1AB8, symBinAddr: 0x100005F9C, symSize: 0xF0 }
  - { offsetInCU: 0xB921, offset: 0xB921, size: 0x8, addend: 0x0, symName: __ZNSt3__117__compressed_pairIP7ProductNS_9allocatorIS1_EEE5firstB7v160006Ev, symObjAddr: 0x1BA8, symBinAddr: 0x10000608C, symSize: 0x24 }
  - { offsetInCU: 0xB946, offset: 0xB946, size: 0x8, addend: 0x0, symName: __ZNSt3__122__compressed_pair_elemIP7ProductLi0ELb0EE5__getB7v160006Ev, symObjAddr: 0x1BCC, symBinAddr: 0x1000060B0, symSize: 0x14 }
  - { offsetInCU: 0xB984, offset: 0xB984, size: 0x8, addend: 0x0, symName: __ZNSt3__16vectorI7ProductNS_9allocatorIS1_EEE21_ConstructTransactionC1B7v160006ERS4_m, symObjAddr: 0x1BE0, symBinAddr: 0x1000060C4, symSize: 0x3C }
  - { offsetInCU: 0xB9CB, offset: 0xB9CB, size: 0x8, addend: 0x0, symName: __ZNSt3__116allocator_traitsINS_9allocatorI7ProductEEE9constructB7v160006IS2_JRA100_cRiS8_EvEEvRS3_PT_DpOT0_, symObjAddr: 0x1C1C, symBinAddr: 0x100006100, symSize: 0x44 }
  - { offsetInCU: 0xBA4A, offset: 0xBA4A, size: 0x8, addend: 0x0, symName: __ZNSt3__16vectorI7ProductNS_9allocatorIS1_EEE21_ConstructTransactionD1B7v160006Ev, symObjAddr: 0x1C60, symBinAddr: 0x100006144, symSize: 0x2C }
  - { offsetInCU: 0xBA73, offset: 0xBA73, size: 0x8, addend: 0x0, symName: __ZNSt3__16vectorI7ProductNS_9allocatorIS1_EEE21_ConstructTransactionC2B7v160006ERS4_m, symObjAddr: 0x1C8C, symBinAddr: 0x100006170, symSize: 0x4C }
  - { offsetInCU: 0xBABA, offset: 0xBABA, size: 0x8, addend: 0x0, symName: __ZNSt3__19allocatorI7ProductE9constructB7v160006IS1_JRA100_cRiS6_EEEvPT_DpOT0_, symObjAddr: 0x1CD8, symBinAddr: 0x1000061BC, symSize: 0x48 }
  - { offsetInCU: 0xBB35, offset: 0xBB35, size: 0x8, addend: 0x0, symName: __ZN7ProductC1EPKcii, symObjAddr: 0x1D20, symBinAddr: 0x100006204, symSize: 0x44 }
  - { offsetInCU: 0xBB88, offset: 0xBB88, size: 0x8, addend: 0x0, symName: __ZN7ProductC2EPKcii, symObjAddr: 0x1D64, symBinAddr: 0x100006248, symSize: 0x50 }
  - { offsetInCU: 0xBBDB, offset: 0xBBDB, size: 0x8, addend: 0x0, symName: __ZNSt3__16vectorI7ProductNS_9allocatorIS1_EEE21_ConstructTransactionD2B7v160006Ev, symObjAddr: 0x1DB4, symBinAddr: 0x100006298, symSize: 0x20 }
  - { offsetInCU: 0xBC03, offset: 0xBC03, size: 0x8, addend: 0x0, symName: __ZNKSt3__16vectorI7ProductNS_9allocatorIS1_EEE11__recommendB7v160006Em, symObjAddr: 0x1DD4, symBinAddr: 0x1000062B8, symSize: 0xB4 }
  - { offsetInCU: 0xBC57, offset: 0xBC57, size: 0x8, addend: 0x0, symName: __ZNSt3__114__split_bufferI7ProductRNS_9allocatorIS1_EEEC1EmmS4_, symObjAddr: 0x1E88, symBinAddr: 0x10000636C, symSize: 0x44 }
  - { offsetInCU: 0xBCAC, offset: 0xBCAC, size: 0x8, addend: 0x0, symName: __ZNSt3__114__split_bufferI7ProductRNS_9allocatorIS1_EEED1Ev, symObjAddr: 0x1FE4, symBinAddr: 0x1000064C8, symSize: 0x2C }
  - { offsetInCU: 0xBCD6, offset: 0xBCD6, size: 0x8, addend: 0x0, symName: __ZNKSt3__16vectorI7ProductNS_9allocatorIS1_EEE8max_sizeEv, symObjAddr: 0x2010, symBinAddr: 0x1000064F4, symSize: 0x74 }
  - { offsetInCU: 0xBCFD, offset: 0xBCFD, size: 0x8, addend: 0x0, symName: __ZNKSt3__16vectorI7ProductNS_9allocatorIS1_EEE20__throw_length_errorB7v160006Ev, symObjAddr: 0x2084, symBinAddr: 0x100006568, symSize: 0x1C }
  - { offsetInCU: 0xBD2C, offset: 0xBD2C, size: 0x8, addend: 0x0, symName: __ZNSt3__116allocator_traitsINS_9allocatorI7ProductEEE8max_sizeB7v160006IS3_vEEmRKS3_, symObjAddr: 0x20F8, symBinAddr: 0x1000065DC, symSize: 0x24 }
  - { offsetInCU: 0xBD5A, offset: 0xBD5A, size: 0x8, addend: 0x0, symName: __ZNKSt3__16vectorI7ProductNS_9allocatorIS1_EEE7__allocB7v160006Ev, symObjAddr: 0x211C, symBinAddr: 0x100006600, symSize: 0x28 }
  - { offsetInCU: 0xBD7F, offset: 0xBD7F, size: 0x8, addend: 0x0, symName: __ZNSt3__114numeric_limitsIlE3maxB7v160006Ev, symObjAddr: 0x2144, symBinAddr: 0x100006628, symSize: 0x14 }
  - { offsetInCU: 0xBDA7, offset: 0xBDA7, size: 0x8, addend: 0x0, symName: __ZNKSt3__16__lessImmEclB7v160006ERKmS3_, symObjAddr: 0x21AC, symBinAddr: 0x100006690, symSize: 0x34 }
  - { offsetInCU: 0xBDE8, offset: 0xBDE8, size: 0x8, addend: 0x0, symName: __ZNKSt3__19allocatorI7ProductE8max_sizeB7v160006Ev, symObjAddr: 0x21E0, symBinAddr: 0x1000066C4, symSize: 0x20 }
  - { offsetInCU: 0xBE0D, offset: 0xBE0D, size: 0x8, addend: 0x0, symName: __ZNKSt3__117__compressed_pairIP7ProductNS_9allocatorIS1_EEE6secondB7v160006Ev, symObjAddr: 0x2200, symBinAddr: 0x1000066E4, symSize: 0x24 }
  - { offsetInCU: 0xBE32, offset: 0xBE32, size: 0x8, addend: 0x0, symName: __ZNKSt3__122__compressed_pair_elemINS_9allocatorI7ProductEELi1ELb1EE5__getB7v160006Ev, symObjAddr: 0x2224, symBinAddr: 0x100006708, symSize: 0x14 }
  - { offsetInCU: 0xBE57, offset: 0xBE57, size: 0x8, addend: 0x0, symName: __ZNSt3__123__libcpp_numeric_limitsIlLb1EE3maxB7v160006Ev, symObjAddr: 0x2238, symBinAddr: 0x10000671C, symSize: 0x8 }
  - { offsetInCU: 0xBE6B, offset: 0xBE6B, size: 0x8, addend: 0x0, symName: __ZNSt12length_errorC1B7v160006EPKc, symObjAddr: 0x22A4, symBinAddr: 0x100006788, symSize: 0x34 }
  - { offsetInCU: 0xBEA2, offset: 0xBEA2, size: 0x8, addend: 0x0, symName: __ZNSt12length_errorC2B7v160006EPKc, symObjAddr: 0x22D8, symBinAddr: 0x1000067BC, symSize: 0x4C }
  - { offsetInCU: 0xBED9, offset: 0xBED9, size: 0x8, addend: 0x0, symName: __ZNSt3__114__split_bufferI7ProductRNS_9allocatorIS1_EEEC2EmmS4_, symObjAddr: 0x2378, symBinAddr: 0x10000685C, symSize: 0xE0 }
  - { offsetInCU: 0xBF4C, offset: 0xBF4C, size: 0x8, addend: 0x0, symName: __ZNSt3__117__compressed_pairIP7ProductRNS_9allocatorIS1_EEEC1B7v160006IDnS5_EEOT_OT0_, symObjAddr: 0x2458, symBinAddr: 0x10000693C, symSize: 0x3C }
  - { offsetInCU: 0xBFA3, offset: 0xBFA3, size: 0x8, addend: 0x0, symName: __ZNSt3__114__split_bufferI7ProductRNS_9allocatorIS1_EEE7__allocB7v160006Ev, symObjAddr: 0x24D4, symBinAddr: 0x1000069B8, symSize: 0x28 }
  - { offsetInCU: 0xBFC8, offset: 0xBFC8, size: 0x8, addend: 0x0, symName: __ZNSt3__114__split_bufferI7ProductRNS_9allocatorIS1_EEE9__end_capB7v160006Ev, symObjAddr: 0x24FC, symBinAddr: 0x1000069E0, symSize: 0x28 }
  - { offsetInCU: 0xBFED, offset: 0xBFED, size: 0x8, addend: 0x0, symName: __ZNSt3__117__compressed_pairIP7ProductRNS_9allocatorIS1_EEEC2B7v160006IDnS5_EEOT_OT0_, symObjAddr: 0x2524, symBinAddr: 0x100006A08, symSize: 0x48 }
  - { offsetInCU: 0xC044, offset: 0xC044, size: 0x8, addend: 0x0, symName: __ZNSt3__122__compressed_pair_elemIRNS_9allocatorI7ProductEELi1ELb0EEC2B7v160006IS4_vEEOT_, symObjAddr: 0x256C, symBinAddr: 0x100006A50, symSize: 0x20 }
  - { offsetInCU: 0xC085, offset: 0xC085, size: 0x8, addend: 0x0, symName: __ZNSt3__19allocatorI7ProductE8allocateB7v160006Em, symObjAddr: 0x258C, symBinAddr: 0x100006A70, symSize: 0x8C }
  - { offsetInCU: 0xC0B8, offset: 0xC0B8, size: 0x8, addend: 0x0, symName: __ZNSt3__117__compressed_pairIP7ProductRNS_9allocatorIS1_EEE6secondB7v160006Ev, symObjAddr: 0x2698, symBinAddr: 0x100006B7C, symSize: 0x28 }
  - { offsetInCU: 0xC0DD, offset: 0xC0DD, size: 0x8, addend: 0x0, symName: __ZNSt3__122__compressed_pair_elemIRNS_9allocatorI7ProductEELi1ELb0EE5__getB7v160006Ev, symObjAddr: 0x26C0, symBinAddr: 0x100006BA4, symSize: 0x18 }
  - { offsetInCU: 0xC102, offset: 0xC102, size: 0x8, addend: 0x0, symName: __ZNSt3__117__compressed_pairIP7ProductRNS_9allocatorIS1_EEE5firstB7v160006Ev, symObjAddr: 0x26D8, symBinAddr: 0x100006BBC, symSize: 0x24 }
  - { offsetInCU: 0xC127, offset: 0xC127, size: 0x8, addend: 0x0, symName: __ZNSt3__116reverse_iteratorIP7ProductEC1B7v160006ES2_, symObjAddr: 0x27E4, symBinAddr: 0x100006CC8, symSize: 0x34 }
  - { offsetInCU: 0xC15E, offset: 0xC15E, size: 0x8, addend: 0x0, symName: __ZNKSt3__116reverse_iteratorIP7ProductE4baseB7v160006Ev, symObjAddr: 0x2818, symBinAddr: 0x100006CFC, symSize: 0x18 }
  - { offsetInCU: 0xC183, offset: 0xC183, size: 0x8, addend: 0x0, symName: __ZNKSt3__16vectorI7ProductNS_9allocatorIS1_EEE14__annotate_newB7v160006Em, symObjAddr: 0x286C, symBinAddr: 0x100006D50, symSize: 0xC8 }
  - { offsetInCU: 0xC1B7, offset: 0xC1B7, size: 0x8, addend: 0x0, symName: __ZNKSt3__116reverse_iteratorIP7ProductEdeB7v160006Ev, symObjAddr: 0x29F0, symBinAddr: 0x100006ED4, symSize: 0x28 }
  - { offsetInCU: 0xC1EA, offset: 0xC1EA, size: 0x8, addend: 0x0, symName: __ZNSt3__116reverse_iteratorIP7ProductEppB7v160006Ev, symObjAddr: 0x2A18, symBinAddr: 0x100006EFC, symSize: 0x20 }
  - { offsetInCU: 0xC214, offset: 0xC214, size: 0x8, addend: 0x0, symName: __ZNSt3__119__to_address_helperINS_16reverse_iteratorIP7ProductEEvE6__callB7v160006ERKS4_, symObjAddr: 0x2AB0, symBinAddr: 0x100006F94, symSize: 0x4C }
  - { offsetInCU: 0xC237, offset: 0xC237, size: 0x8, addend: 0x0, symName: __ZNKSt3__116reverse_iteratorIP7ProductEptB7v160006Ev, symObjAddr: 0x2AFC, symBinAddr: 0x100006FE0, symSize: 0x24 }
  - { offsetInCU: 0xC27F, offset: 0xC27F, size: 0x8, addend: 0x0, symName: __ZNKSt3__111__move_loopINS_17_ClassicAlgPolicyEEclB7v160006INS_16reverse_iteratorIP7ProductEES7_S7_EENS_4pairIT_T1_EES9_T0_SA_, symObjAddr: 0x2DB0, symBinAddr: 0x100007294, symSize: 0x9C }
  - { offsetInCU: 0xC2EE, offset: 0xC2EE, size: 0x8, addend: 0x0, symName: __ZNSt3__18_IterOpsINS_17_ClassicAlgPolicyEE11__iter_moveB7v160006IRNS_16reverse_iteratorIP7ProductEEEENS_9enable_ifIXsr12is_referenceIDTdeclsr3stdE7declvalIRT_EEEEE5valueEDTclsr3stdE4movedeclsr3stdE7declvalISB_EEEEE4typeEOSA_, symObjAddr: 0x2FAC, symBinAddr: 0x100007490, symSize: 0x28 }
  - { offsetInCU: 0xC31A, offset: 0xC31A, size: 0x8, addend: 0x0, symName: __ZNSt3__18_IterOpsINS_17_ClassicAlgPolicyEE25__validate_iter_referenceB7v160006IRNS_16reverse_iteratorIP7ProductEEEEvv, symObjAddr: 0x2FD4, symBinAddr: 0x1000074B8, symSize: 0x4 }
  - { offsetInCU: 0xC338, offset: 0xC338, size: 0x8, addend: 0x0, symName: __ZNSt3__118__unwrap_iter_implINS_16reverse_iteratorIP7ProductEELb0EE8__unwrapB7v160006ES4_, symObjAddr: 0x2FD8, symBinAddr: 0x1000074BC, symSize: 0x24 }
  - { offsetInCU: 0xC35B, offset: 0xC35B, size: 0x8, addend: 0x0, symName: __ZNSt3__14pairINS_16reverse_iteratorIP7ProductEES4_EC1B7v160006ERKS4_S7_, symObjAddr: 0x2FFC, symBinAddr: 0x1000074E0, symSize: 0x3C }
  - { offsetInCU: 0xC3A0, offset: 0xC3A0, size: 0x8, addend: 0x0, symName: __ZNSt3__14pairINS_16reverse_iteratorIP7ProductEES4_EC2B7v160006ERKS4_S7_, symObjAddr: 0x3038, symBinAddr: 0x10000751C, symSize: 0x34 }
  - { offsetInCU: 0xC3E5, offset: 0xC3E5, size: 0x8, addend: 0x0, symName: __ZNSt3__118__unwrap_iter_implINS_16reverse_iteratorIP7ProductEELb0EE8__rewrapB7v160006ES4_S4_, symObjAddr: 0x306C, symBinAddr: 0x100007550, symSize: 0x2C }
  - { offsetInCU: 0xC413, offset: 0xC413, size: 0x8, addend: 0x0, symName: __ZNSt3__116reverse_iteratorIP7ProductEC2B7v160006ES2_, symObjAddr: 0x3098, symBinAddr: 0x10000757C, symSize: 0x28 }
  - { offsetInCU: 0xC44A, offset: 0xC44A, size: 0x8, addend: 0x0, symName: __ZNSt3__114__split_bufferI7ProductRNS_9allocatorIS1_EEED2Ev, symObjAddr: 0x30C0, symBinAddr: 0x1000075A4, symSize: 0x80 }
  - { offsetInCU: 0xC475, offset: 0xC475, size: 0x8, addend: 0x0, symName: __ZNSt3__114__split_bufferI7ProductRNS_9allocatorIS1_EEE5clearB7v160006Ev, symObjAddr: 0x3140, symBinAddr: 0x100007624, symSize: 0x28 }
  - { offsetInCU: 0xC49A, offset: 0xC49A, size: 0x8, addend: 0x0, symName: __ZNKSt3__114__split_bufferI7ProductRNS_9allocatorIS1_EEE8capacityB7v160006Ev, symObjAddr: 0x3168, symBinAddr: 0x10000764C, symSize: 0x40 }
  - { offsetInCU: 0xC4BF, offset: 0xC4BF, size: 0x8, addend: 0x0, symName: __ZNSt3__114__split_bufferI7ProductRNS_9allocatorIS1_EEE17__destruct_at_endB7v160006EPS1_, symObjAddr: 0x31A8, symBinAddr: 0x10000768C, symSize: 0x2C }
  - { offsetInCU: 0xC4F1, offset: 0xC4F1, size: 0x8, addend: 0x0, symName: __ZNSt3__114__split_bufferI7ProductRNS_9allocatorIS1_EEE17__destruct_at_endB7v160006EPS1_NS_17integral_constantIbLb0EEE, symObjAddr: 0x31D4, symBinAddr: 0x1000076B8, symSize: 0x94 }
  - { offsetInCU: 0xC531, offset: 0xC531, size: 0x8, addend: 0x0, symName: __ZNKSt3__114__split_bufferI7ProductRNS_9allocatorIS1_EEE9__end_capB7v160006Ev, symObjAddr: 0x3268, symBinAddr: 0x10000774C, symSize: 0x28 }
  - { offsetInCU: 0xC556, offset: 0xC556, size: 0x8, addend: 0x0, symName: __ZNKSt3__117__compressed_pairIP7ProductRNS_9allocatorIS1_EEE5firstB7v160006Ev, symObjAddr: 0x3290, symBinAddr: 0x100007774, symSize: 0x24 }
...
